target datalayout = "e-m:e-p270:32:32-p271:32:32-p272:64:64-i64:64-i128:128-f80:128-n8:16:32:64-S128"
target triple = "x86_64-pc-linux-gnu"

%"class.bit_matrix::row" = type { ptr, ptr }

; Function Attrs: mustprogress nounwind uwtable
define hidden noundef zeroext i1 @_ZNK10bit_matrix3rowixEj(ptr noundef nonnull align 8 dereferenceable(16) %0, i32 noundef %1) #5 align 2 {
  %3 = alloca ptr, align 8
  %4 = alloca i32, align 4
  store ptr %0, ptr %3, align 8, !tbaa !3
  store i32 %1, ptr %4, align 4, !tbaa !40
  %5 = load ptr, ptr %3, align 8
  %6 = getelementptr inbounds nuw %"class.bit_matrix::row", ptr %5, i32 0, i32 1
  %7 = load ptr, ptr %6, align 8, !tbaa !41
  %8 = load i32, ptr %4, align 4, !tbaa !40
  %9 = lshr i32 %8, 6
  %10 = zext i32 %9 to i64
  %11 = getelementptr inbounds nuw i64, ptr %7, i64 %10
  %12 = load i64, ptr %11, align 8, !tbaa !35
  %13 = load i32, ptr %4, align 4, !tbaa !40
  %14 = and i32 %13, 63
  %15 = zext i32 %14 to i64
  %16 = shl i64 1, %15
  %17 = and i64 %12, %16
  %18 = icmp ne i64 %17, 0
  ret i1 %18
}