; Function Attrs: mustprogress nofree norecurse nosync nounwind willreturn memory(read, inaccessiblemem: none) uwtable
define hidden noundef zeroext i1 @_ZNK10bit_matrix3rowixEj(ptr noundef nonnull readonly align 8 captures(none) dereferenceable(16) %0, i32 noundef %1) local_unnamed_addr #5 align 2 {
  %3 = getelementptr inbounds nuw i8, ptr %0, i64 8
  %4 = load ptr, ptr %3, align 8, !tbaa !15
  %5 = lshr i32 %1, 6
  %6 = zext nneg i32 %5 to i64
  %7 = getelementptr inbounds nuw i64, ptr %4, i64 %6
  %8 = load i64, ptr %7, align 8, !tbaa !16
  %9 = and i32 %1, 63
  %10 = zext nneg i32 %9 to i64
  %11 = shl nuw i64 1, %10
  %12 = and i64 %8, %11
  %13 = icmp ne i64 %12, 0
  ret i1 %13
}